Certificate:
    Data:
        Version: 3 (0x2)
        Serial Number: 1 (0x1)
        Signature Algorithm: sha256WithRSAEncryption
        Issuer: CN=ca.localdomain, C=FR, ST=BdR, L=Aix, O=fD, OU=Tests
        Validity
            Not Before: May 26 20:22:48 2020 GMT
            Not After : May 26 20:22:48 2021 GMT
        Subject: C=FR, ST=BdR, O=fD, OU=Tests, CN=hss.AERPAW.MSU
        Subject Public Key Info:
            Public Key Algorithm: rsaEncryption
                RSA Public-Key: (1024 bit)
                Modulus:
                    00:ec:b0:81:38:e6:73:38:64:6d:77:bf:e7:0e:10:
                    ad:21:0b:2d:8f:c7:c8:96:24:c3:08:e0:9a:db:32:
                    c2:94:38:fe:b3:22:c8:cb:12:8a:4e:8b:06:62:b7:
                    c6:80:cc:67:f5:68:41:85:8e:fb:8c:e0:d7:47:0c:
                    da:67:04:c5:cb:85:21:95:6d:c0:23:58:e8:db:5d:
                    1c:29:1f:9a:9f:fd:1a:78:41:16:29:cf:ad:10:dd:
                    c8:0b:06:f4:5b:62:07:bb:52:84:55:7e:88:bb:cb:
                    82:f0:9e:26:56:26:bb:b0:c4:92:1c:20:4d:ed:7b:
                    c7:cb:30:5f:f2:2c:3e:a4:75
                Exponent: 65537 (0x10001)
        X509v3 extensions:
            X509v3 Basic Constraints: 
                CA:FALSE
            Netscape Comment: 
                OpenSSL Generated Certificate
            X509v3 Subject Key Identifier: 
                7D:6C:90:20:3D:19:80:F6:3F:A3:0E:7D:33:C8:F9:A3:21:DB:A2:33
            X509v3 Authority Key Identifier: 
                keyid:FD:F2:1F:DF:B2:47:57:B3:A0:0E:85:F4:4D:5E:3A:80:C1:F5:C5:96

    Signature Algorithm: sha256WithRSAEncryption
         2a:1e:2f:8a:1a:51:48:22:23:b7:35:7b:06:ae:50:30:86:b4:
         94:2e:04:73:f1:38:91:76:2e:52:1d:41:e6:b7:1e:9a:5a:c3:
         b4:cd:64:bc:2f:cc:8d:08:fc:8e:92:d0:e8:39:ce:3d:bb:ce:
         ee:92:8f:3a:3e:75:d5:dd:b0:1d:70:73:48:f3:ea:a8:5a:7b:
         46:36:91:f4:b4:c2:9d:2c:5e:ae:e7:f8:ca:36:42:e6:b6:99:
         8f:93:d0:91:d4:f8:d4:81:23:67:25:51:b6:bd:31:c5:a8:53:
         83:0c:60:2b:8c:e1:83:97:37:90:b4:4d:10:af:86:f0:74:45:
         84:ea
-----BEGIN CERTIFICATE-----
MIICoTCCAgqgAwIBAgIBATANBgkqhkiG9w0BAQsFADBfMRcwFQYDVQQDDA5jYS5s
b2NhbGRvbWFpbjELMAkGA1UEBhMCRlIxDDAKBgNVBAgMA0JkUjEMMAoGA1UEBwwD
QWl4MQswCQYDVQQKDAJmRDEOMAwGA1UECwwFVGVzdHMwHhcNMjAwNTI2MjAyMjQ4
WhcNMjEwNTI2MjAyMjQ4WjBRMQswCQYDVQQGEwJGUjEMMAoGA1UECAwDQmRSMQsw
CQYDVQQKDAJmRDEOMAwGA1UECwwFVGVzdHMxFzAVBgNVBAMMDmhzcy5BRVJQQVcu
TVNVMIGfMA0GCSqGSIb3DQEBAQUAA4GNADCBiQKBgQDssIE45nM4ZG13v+cOEK0h
Cy2Px8iWJMMI4JrbMsKUOP6zIsjLEopOiwZit8aAzGf1aEGFjvuM4NdHDNpnBMXL
hSGVbcAjWOjbXRwpH5qf/Rp4QRYpz60Q3cgLBvRbYge7UoRVfoi7y4LwniZWJruw
xJIcIE3te8fLMF/yLD6kdQIDAQABo3sweTAJBgNVHRMEAjAAMCwGCWCGSAGG+EIB
DQQfFh1PcGVuU1NMIEdlbmVyYXRlZCBDZXJ0aWZpY2F0ZTAdBgNVHQ4EFgQUfWyQ
ID0ZgPY/ow59M8j5oyHbojMwHwYDVR0jBBgwFoAU/fIf37JHV7OgDoX0TV46gMH1
xZYwDQYJKoZIhvcNAQELBQADgYEAKh4vihpRSCIjtzV7Bq5QMIa0lC4Ec/E4kXYu
Uh1B5rcemlrDtM1kvC/MjQj8jpLQ6DnOPbvO7pKPOj511d2wHXBzSPPqqFp7RjaR
9LTCnSxeruf4yjZC5raZj5PQkdT41IEjZyVRtr0xxahTgwxgK4zhg5c3kLRNEK+G
8HRFhOo=
-----END CERTIFICATE-----
