Certificate:
    Data:
        Version: 3 (0x2)
        Serial Number: 1 (0x1)
        Signature Algorithm: sha256WithRSAEncryption
        Issuer: CN=mme.AERPAW.MSU, C=FR, ST=PACA, L=Aix, O=Eurecom, OU=CM
        Validity
            Not Before: May  7 20:56:28 2020 GMT
            Not After : May  7 20:56:28 2021 GMT
        Subject: C=FR, ST=PACA, O=Eurecom, OU=CM, CN=mme.AERPAW.MSU
        Subject Public Key Info:
            Public Key Algorithm: rsaEncryption
                RSA Public-Key: (1024 bit)
                Modulus:
                    00:bd:7f:f6:5f:70:aa:5d:68:ea:4c:9a:50:e6:e1:
                    f1:a0:d3:c6:aa:78:72:f6:2d:48:1d:5a:23:e0:48:
                    3b:83:cd:69:8a:c6:69:ff:86:19:63:12:f4:95:3d:
                    e6:fe:f5:33:67:07:b5:23:75:a7:9f:c4:3c:46:54:
                    e1:da:a4:70:dd:3c:a8:30:9b:9d:aa:80:19:f1:1f:
                    07:a1:48:af:c5:19:69:86:4a:ee:d5:a2:88:71:7a:
                    9e:fb:0b:47:df:5a:cc:db:7c:c7:87:c0:fb:98:4f:
                    3a:06:60:c0:e4:d2:77:59:d7:3b:c8:af:d7:f5:eb:
                    5f:a8:a3:c5:c1:a0:03:6a:5d
                Exponent: 65537 (0x10001)
        X509v3 extensions:
            X509v3 Basic Constraints: 
                CA:FALSE
            Netscape Comment: 
                OpenSSL Generated Certificate
            X509v3 Subject Key Identifier: 
                9E:EC:4A:74:0F:4C:60:63:7C:F1:04:9C:5A:95:21:0D:8E:D7:CF:2D
            X509v3 Authority Key Identifier: 
                keyid:CA:74:08:61:0A:6C:E8:E0:42:69:39:02:A1:4A:DC:13:19:42:02:3F

    Signature Algorithm: sha256WithRSAEncryption
         42:f6:9b:8e:b0:49:1e:9e:97:4b:e7:a7:3e:27:70:c6:e3:ba:
         9a:86:ed:19:f7:d6:cc:53:39:80:64:42:f1:ef:32:14:a5:03:
         c1:16:82:63:b8:a3:ea:4f:da:c7:1f:77:87:a4:f7:fb:e9:fc:
         59:75:fa:03:f6:f3:05:9e:2f:31:1d:43:e5:d3:bf:cf:fc:ab:
         60:f8:e3:62:06:1d:fe:ae:da:83:74:3c:93:f0:5d:3a:92:95:
         07:84:d0:28:16:73:51:71:72:33:4d:0e:2b:f4:72:c9:51:43:
         ab:e0:30:07:cf:72:2a:9e:f4:93:8c:a0:69:dd:5a:0f:de:8f:
         96:1a
-----BEGIN CERTIFICATE-----
MIICpzCCAhCgAwIBAgIBATANBgkqhkiG9w0BAQsFADBiMRcwFQYDVQQDDA5tbWUu
QUVSUEFXLk1TVTELMAkGA1UEBhMCRlIxDTALBgNVBAgMBFBBQ0ExDDAKBgNVBAcM
A0FpeDEQMA4GA1UECgwHRXVyZWNvbTELMAkGA1UECwwCQ00wHhcNMjAwNTA3MjA1
NjI4WhcNMjEwNTA3MjA1NjI4WjBUMQswCQYDVQQGEwJGUjENMAsGA1UECAwEUEFD
QTEQMA4GA1UECgwHRXVyZWNvbTELMAkGA1UECwwCQ00xFzAVBgNVBAMMDm1tZS5B
RVJQQVcuTVNVMIGfMA0GCSqGSIb3DQEBAQUAA4GNADCBiQKBgQC9f/ZfcKpdaOpM
mlDm4fGg08aqeHL2LUgdWiPgSDuDzWmKxmn/hhljEvSVPeb+9TNnB7UjdaefxDxG
VOHapHDdPKgwm52qgBnxHwehSK/FGWmGSu7Voohxep77C0ffWszbfMeHwPuYTzoG
YMDk0ndZ1zvIr9f161+oo8XBoANqXQIDAQABo3sweTAJBgNVHRMEAjAAMCwGCWCG
SAGG+EIBDQQfFh1PcGVuU1NMIEdlbmVyYXRlZCBDZXJ0aWZpY2F0ZTAdBgNVHQ4E
FgQUnuxKdA9MYGN88QScWpUhDY7Xzy0wHwYDVR0jBBgwFoAUynQIYQps6OBCaTkC
oUrcExlCAj8wDQYJKoZIhvcNAQELBQADgYEAQvabjrBJHp6XS+enPidwxuO6mobt
GffWzFM5gGRC8e8yFKUDwRaCY7ij6k/axx93h6T3++n8WXX6A/bzBZ4vMR1D5dO/
z/yrYPjjYgYd/q7ag3Q8k/BdOpKVB4TQKBZzUXFyM00OK/RyyVFDq+AwB89yKp70
k4ygad1aD96Plho=
-----END CERTIFICATE-----
